target datalayout = "e-m:e-p270:32:32-p271:32:32-p272:64:64-i64:64-i128:128-f80:128-n8:16:32:64-S128"
target triple = "x86_64-pc-linux-gnu"

%"class.clang::ObjCListBase" = type <{ ptr, i32, [4 x i8] }>
%"class.clang::SourceLocation" = type { i32 }
%"class.clang::ObjCProtocolList" = type { %"class.clang::ObjCList.base", ptr }
%"class.clang::ObjCList.base" = type { %"class.clang::ObjCListBase.base" }
%"class.clang::ObjCListBase.base" = type <{ ptr, i32 }>
%"class.clang::DeclarationName" = type { i64 }
%"class.clang::ObjCContainerDecl" = type { %"class.clang::NamedDecl", %"class.clang::DeclContext", %"class.clang::SourceRange" }
%"class.clang::NamedDecl" = type { %"class.clang::Decl.base", %"class.clang::DeclarationName" }
%"class.clang::Decl.base" = type <{ ptr, %"class.llvm::PointerIntPair.337", %"class.llvm::PointerUnion", %"class.clang::SourceLocation", i32, i8 }>
%"class.llvm::PointerIntPair.337" = type { %"struct.llvm::detail::PunnedPointer.338" }
%"struct.llvm::detail::PunnedPointer.338" = type { [8 x i8] }
%"class.llvm::PointerUnion" = type { %"class.llvm::pointer_union_detail::PointerUnionMembers" }
%"class.llvm::pointer_union_detail::PointerUnionMembers" = type { %"class.llvm::pointer_union_detail::PointerUnionMembers.339" }
%"class.llvm::pointer_union_detail::PointerUnionMembers.339" = type { %"class.llvm::pointer_union_detail::PointerUnionMembers.340" }
%"class.llvm::pointer_union_detail::PointerUnionMembers.340" = type { %"class.llvm::PointerIntPair.341" }
%"class.llvm::PointerIntPair.341" = type { %"struct.llvm::detail::PunnedPointer.342" }
%"struct.llvm::detail::PunnedPointer.342" = type { [8 x i8] }
%"class.clang::DeclContext" = type { ptr, %union.anon.343, ptr, ptr }
%union.anon.343 = type { %"class.clang::DeclContext::RecordDeclBitfields" }
%"class.clang::DeclContext::RecordDeclBitfields" = type { i64 }
%"class.clang::SourceRange" = type { %"class.clang::SourceLocation", %"class.clang::SourceLocation" }
%"class.clang::DeclContext::ObjCContainerDeclBitfields" = type { i16, %"class.clang::SourceLocation" }
%"class.clang::ObjCCategoryDecl" = type <{ %"class.clang::ObjCContainerDecl", ptr, ptr, %"class.clang::ObjCProtocolList", ptr, %"class.clang::SourceLocation", %"class.clang::SourceLocation", %"class.clang::SourceLocation", [4 x i8] }>
%"class.clang::ObjCTypeParamList" = type { %"class.clang::SourceRange", i32, [4 x i8] }

@_ZTVN5clang9NamedDeclE = external unnamed_addr constant { [15 x ptr] }, align 8

; Function Attrs: mustprogress nounwind uwtable
define linkonce_odr hidden noundef i64 @_ZN4llvm15TrailingObjectsIN5clang17ObjCTypeParamListEJPNS1_17ObjCTypeParamDeclEEE22callNumTrailingObjectsEPKS2_NS_25trailing_objects_internal19TrailingObjectsBase13OverloadTokenIS2_EE(ptr noundef %0) #0 comdat align 2 {
  %2 = alloca ptr, align 8
  store ptr %0, ptr %2, align 8
  ret i64 1
}

; Function Attrs: mustprogress nounwind uwtable
define linkonce_odr hidden noundef ptr @_ZN4llvm15TrailingObjectsIN5clang17ObjCTypeParamListEJPNS1_17ObjCTypeParamDeclEEE22getTrailingObjectsImplEPS2_NS_25trailing_objects_internal19TrailingObjectsBase13OverloadTokenIS2_EE(ptr noundef %0) #0 comdat align 2 {
  %2 = alloca ptr, align 8
  store ptr %0, ptr %2, align 8
  %3 = load ptr, ptr %2, align 8
  ret ptr %3
}

; Function Attrs: mustprogress nounwind uwtable
define linkonce_odr hidden noundef ptr @_ZN4llvm25trailing_objects_internal19TrailingObjectsImplILi8EN5clang17ObjCTypeParamListENS_15TrailingObjectsIS3_JPNS2_17ObjCTypeParamDeclEEEES3_JS6_EE22getTrailingObjectsImplEPS3_NS0_19TrailingObjectsBase13OverloadTokenIS6_EE(ptr noundef %0) #0 comdat align 2 {
  %2 = alloca ptr, align 8
  %3 = alloca ptr, align 8
  store ptr %0, ptr %2, align 8
  %4 = load ptr, ptr %2, align 8
  %5 = call noundef ptr @_ZN4llvm15TrailingObjectsIN5clang17ObjCTypeParamListEJPNS1_17ObjCTypeParamDeclEEE22getTrailingObjectsImplEPS2_NS_25trailing_objects_internal19TrailingObjectsBase13OverloadTokenIS2_EE(ptr noundef %4)
  %6 = load ptr, ptr %2, align 8
  %7 = call noundef i64 @_ZN4llvm15TrailingObjectsIN5clang17ObjCTypeParamListEJPNS1_17ObjCTypeParamDeclEEE22callNumTrailingObjectsEPKS2_NS_25trailing_objects_internal19TrailingObjectsBase13OverloadTokenIS2_EE(ptr noundef %6)
  %8 = getelementptr inbounds %"class.clang::ObjCTypeParamList", ptr %5, i64 %7
  store ptr %8, ptr %3, align 8
  %9 = load ptr, ptr %3, align 8
  ret ptr %9
}

; Function Attrs: mustprogress nounwind uwtable
define linkonce_odr hidden void @_ZN4llvm15TrailingObjectsIN5clang17ObjCTypeParamListEJPNS1_17ObjCTypeParamDeclEEE31verifyTrailingObjectsAssertionsEv() #0 comdat align 2 {
  ret void
}

; Function Attrs: mustprogress nounwind uwtable
define linkonce_odr hidden noundef i32 @_ZNK5clang17ObjCTypeParamList4sizeEv(ptr noundef nonnull align 8 dereferenceable(16) %0) #0 comdat align 2 {
  %2 = alloca ptr, align 8
  store ptr %0, ptr %2, align 8
  %3 = load ptr, ptr %2, align 8
  %4 = getelementptr inbounds nuw %"class.clang::ObjCTypeParamList", ptr %3, i32 0, i32 1
  %5 = load i32, ptr %4, align 8
  ret i32 %5
}

; Function Attrs: mustprogress nounwind uwtable
define linkonce_odr hidden noundef ptr @_ZN4llvm15TrailingObjectsIN5clang17ObjCTypeParamListEJPNS1_17ObjCTypeParamDeclEEE18getTrailingObjectsIS4_EEPT_v(ptr noundef nonnull align 8 dereferenceable(8) %0) #0 comdat align 2 {
  %2 = alloca ptr, align 8
  store ptr %0, ptr %2, align 8
  %3 = load ptr, ptr %2, align 8
  call void @_ZN4llvm15TrailingObjectsIN5clang17ObjCTypeParamListEJPNS1_17ObjCTypeParamDeclEEE31verifyTrailingObjectsAssertionsEv()
  %4 = call noundef ptr @_ZN4llvm25trailing_objects_internal19TrailingObjectsImplILi8EN5clang17ObjCTypeParamListENS_15TrailingObjectsIS3_JPNS2_17ObjCTypeParamDeclEEEES3_JS6_EE22getTrailingObjectsImplEPS3_NS0_19TrailingObjectsBase13OverloadTokenIS6_EE(ptr noundef %3)
  ret ptr %4
}

; Function Attrs: mustprogress nounwind uwtable
define linkonce_odr hidden void @_ZN5clang12ObjCListBaseC2Ev(ptr noundef nonnull align 8 dereferenceable(12) %0) unnamed_addr #0 comdat align 2 {
  %2 = alloca ptr, align 8
  store ptr %0, ptr %2, align 8
  %3 = load ptr, ptr %2, align 8
  %4 = getelementptr inbounds nuw %"class.clang::ObjCListBase", ptr %3, i32 0, i32 0
  store ptr null, ptr %4, align 8
  %5 = getelementptr inbounds nuw %"class.clang::ObjCListBase", ptr %3, i32 0, i32 1
  store i32 0, ptr %5, align 8
  ret void
}

; Function Attrs: mustprogress nounwind uwtable
define linkonce_odr hidden void @_ZN5clang14SourceLocationC2Ev(ptr noundef nonnull align 4 dereferenceable(4) %0) unnamed_addr #0 comdat align 2 {
  %2 = alloca ptr, align 8
  store ptr %0, ptr %2, align 8
  %3 = load ptr, ptr %2, align 8
  %4 = getelementptr inbounds nuw %"class.clang::SourceLocation", ptr %3, i32 0, i32 0
  store i32 0, ptr %4, align 4
  ret void
}

; Function Attrs: mustprogress nounwind uwtable
define linkonce_odr hidden void @_ZN5clang15DeclarationName13setPtrAndKindEPKvNS0_14StoredNameKindE(ptr noundef nonnull align 8 dereferenceable(8) %0, ptr noundef %1, i32 noundef %2) #0 comdat align 2 {
  %4 = alloca ptr, align 8
  %5 = alloca ptr, align 8
  %6 = alloca i32, align 4
  %7 = alloca i64, align 8
  store ptr %0, ptr %4, align 8
  store ptr %1, ptr %5, align 8
  store i32 %2, ptr %6, align 4
  %8 = load ptr, ptr %4, align 8
  %9 = load ptr, ptr %5, align 8
  %10 = ptrtoint ptr %9 to i64
  store i64 %10, ptr %7, align 8
  %11 = load i64, ptr %7, align 8
  %12 = load i32, ptr %6, align 4
  %13 = zext i32 %12 to i64
  %14 = or i64 %11, %13
  %15 = getelementptr inbounds nuw %"class.clang::DeclarationName", ptr %8, i32 0, i32 0
  store i64 %14, ptr %15, align 8
  ret void
}

; Function Attrs: mustprogress nounwind uwtable
define linkonce_odr hidden noundef ptr @_ZN5clang17ObjCTypeParamList3endEv(ptr noundef nonnull align 8 dereferenceable(16) %0) #0 comdat align 2 {
  %2 = alloca ptr, align 8
  store ptr %0, ptr %2, align 8
  %3 = load ptr, ptr %2, align 8
  %4 = call noundef ptr @_ZN5clang17ObjCTypeParamList5beginEv(ptr noundef nonnull align 8 dereferenceable(16) %3)
  %5 = call noundef i32 @_ZNK5clang17ObjCTypeParamList4sizeEv(ptr noundef nonnull align 8 dereferenceable(16) %3)
  %6 = zext i32 %5 to i64
  %7 = getelementptr inbounds ptr, ptr %4, i64 %6
  ret ptr %7
}

; Function Attrs: mustprogress nounwind uwtable
define linkonce_odr hidden noundef ptr @_ZN5clang17ObjCTypeParamList5beginEv(ptr noundef nonnull align 8 dereferenceable(16) %0) #0 comdat align 2 {
  %2 = alloca ptr, align 8
  store ptr %0, ptr %2, align 8
  %3 = load ptr, ptr %2, align 8
  %4 = call noundef ptr @_ZN4llvm15TrailingObjectsIN5clang17ObjCTypeParamListEJPNS1_17ObjCTypeParamDeclEEE18getTrailingObjectsIS4_EEPT_v(ptr noundef nonnull align 8 dereferenceable(8) %3)
  ret ptr %4
}

; Function Attrs: mustprogress nounwind uwtable
define linkonce_odr hidden void @_ZN5clang8ObjCListINS_16ObjCProtocolDeclEEC2Ev(ptr noundef nonnull align 8 dereferenceable(12) %0) unnamed_addr #0 comdat align 2 {
  %2 = alloca ptr, align 8
  store ptr %0, ptr %2, align 8
  %3 = load ptr, ptr %2, align 8
  call void @_ZN5clang12ObjCListBaseC2Ev(ptr noundef nonnull align 8 dereferenceable(12) %3) #13
  ret void
}

; Function Attrs: mustprogress nounwind uwtable
define linkonce_odr hidden void @_ZN5clang17ObjCContainerDecl13setAtStartLocENS_14SourceLocationE(ptr noundef nonnull align 8 dereferenceable(88) %0, i32 %1) #0 comdat align 2 {
  %3 = alloca %"class.clang::SourceLocation", align 4
  %4 = alloca ptr, align 8
  %5 = getelementptr inbounds nuw %"class.clang::SourceLocation", ptr %3, i32 0, i32 0
  store i32 %1, ptr %5, align 4
  store ptr %0, ptr %4, align 8
  %6 = load ptr, ptr %4, align 8
  %7 = getelementptr inbounds i8, ptr %6, i64 48
  %8 = getelementptr inbounds nuw %"class.clang::DeclContext", ptr %7, i32 0, i32 1
  %9 = getelementptr inbounds nuw %"class.clang::DeclContext::ObjCContainerDeclBitfields", ptr %8, i32 0, i32 1
  call void @llvm.memcpy.p0.p0.i64(ptr align 4 %9, ptr align 4 %3, i64 4, i1 false)
  ret void
}

; Function Attrs: mustprogress nounwind uwtable
define linkonce_odr hidden void @_ZN5clang11SourceRangeC2Ev(ptr noundef nonnull align 4 dereferenceable(8) %0) unnamed_addr #0 comdat align 2 {
  %2 = alloca ptr, align 8
  store ptr %0, ptr %2, align 8
  %3 = load ptr, ptr %2, align 8
  %4 = getelementptr inbounds nuw %"class.clang::SourceRange", ptr %3, i32 0, i32 0
  call void @_ZN5clang14SourceLocationC2Ev(ptr noundef nonnull align 4 dereferenceable(4) %4) #13
  %5 = getelementptr inbounds nuw %"class.clang::SourceRange", ptr %3, i32 0, i32 1
  call void @_ZN5clang14SourceLocationC2Ev(ptr noundef nonnull align 4 dereferenceable(4) %5) #13
  ret void
}

; Function Attrs: mustprogress nounwind uwtable
define linkonce_odr hidden void @_ZN5clang9NamedDeclC2ENS_4Decl4KindEPNS_11DeclContextENS_14SourceLocationENS_15DeclarationNameE(ptr noundef nonnull align 8 dereferenceable(48) %0, i32 noundef %1, ptr noundef %2, i32 %3, i64 %4) unnamed_addr #0 comdat align 2 {
  %6 = alloca %"class.clang::SourceLocation", align 4
  %7 = alloca %"class.clang::DeclarationName", align 8
  %8 = alloca ptr, align 8
  %9 = alloca i32, align 4
  %10 = alloca ptr, align 8
  %11 = alloca %"class.clang::SourceLocation", align 4
  %12 = getelementptr inbounds nuw %"class.clang::SourceLocation", ptr %6, i32 0, i32 0
  store i32 %3, ptr %12, align 4
  %13 = getelementptr inbounds nuw %"class.clang::DeclarationName", ptr %7, i32 0, i32 0
  store i64 %4, ptr %13, align 8
  store ptr %0, ptr %8, align 8
  store i32 %1, ptr %9, align 4
  store ptr %2, ptr %10, align 8
  %14 = load ptr, ptr %8, align 8
  %15 = load i32, ptr %9, align 4
  %16 = load ptr, ptr %10, align 8
  call void @llvm.memcpy.p0.p0.i64(ptr align 4 %11, ptr align 4 %6, i64 4, i1 false)
  %17 = getelementptr inbounds nuw %"class.clang::SourceLocation", ptr %11, i32 0, i32 0
  %18 = load i32, ptr %17, align 4
  call void @_ZN5clang4DeclC2ENS0_4KindEPNS_11DeclContextENS_14SourceLocationE(ptr noundef nonnull align 8 dereferenceable(33) %14, i32 noundef %15, ptr noundef %16, i32 %18)
  store ptr getelementptr inbounds inrange(-16, 104) ({ [15 x ptr] }, ptr @_ZTVN5clang9NamedDeclE, i32 0, i32 0, i32 2), ptr %14, align 8
  %19 = getelementptr inbounds nuw %"class.clang::NamedDecl", ptr %14, i32 0, i32 1
  call void @llvm.memcpy.p0.p0.i64(ptr align 8 %19, ptr align 8 %7, i64 8, i1 false)
  ret void
}

; Function Attrs: mustprogress nounwind uwtable
define linkonce_odr hidden void @_ZN5clang15DeclarationNameC2EPKNS_14IdentifierInfoE(ptr noundef nonnull align 8 dereferenceable(8) %0, ptr noundef %1) unnamed_addr #0 comdat align 2 {
  %3 = alloca ptr, align 8
  %4 = alloca ptr, align 8
  store ptr %0, ptr %3, align 8
  store ptr %1, ptr %4, align 8
  %5 = load ptr, ptr %3, align 8
  %6 = getelementptr inbounds nuw %"class.clang::DeclarationName", ptr %5, i32 0, i32 0
  store i64 0, ptr %6, align 8
  %7 = load ptr, ptr %4, align 8
  call void @_ZN5clang15DeclarationName13setPtrAndKindEPKvNS0_14StoredNameKindE(ptr noundef nonnull align 8 dereferenceable(8) %5, ptr noundef %7, i32 noundef 0)
  ret void
}

; Function Attrs: mustprogress nounwind uwtable
define dso_local void @_ZN5clang16ObjCCategoryDecl16setTypeParamListEPNS_17ObjCTypeParamListE(ptr noundef nonnull align 8 dereferenceable(148) %0, ptr noundef %1) #0 align 2 {
  %3 = alloca ptr, align 8
  %4 = alloca ptr, align 8
  %5 = alloca ptr, align 8
  %6 = alloca ptr, align 8
  %7 = alloca ptr, align 8
  %8 = alloca ptr, align 8
  store ptr %0, ptr %3, align 8
  store ptr %1, ptr %4, align 8
  %9 = load ptr, ptr %3, align 8
  %10 = load ptr, ptr %4, align 8
  %11 = getelementptr inbounds nuw %"class.clang::ObjCCategoryDecl", ptr %9, i32 0, i32 2
  store ptr %10, ptr %11, align 8
  %12 = load ptr, ptr %4, align 8
  %13 = icmp ne ptr %12, null
  br i1 %13, label %15, label %14

14:                                               ; preds = %2
  br label %34

15:                                               ; preds = %2
  %16 = getelementptr inbounds nuw %"class.clang::ObjCCategoryDecl", ptr %9, i32 0, i32 2
  %17 = load ptr, ptr %16, align 8
  store ptr %17, ptr %5, align 8
  %18 = load ptr, ptr %5, align 8
  %19 = call noundef ptr @_ZN5clang17ObjCTypeParamList5beginEv(ptr noundef nonnull align 8 dereferenceable(16) %18)
  store ptr %19, ptr %6, align 8
  %20 = load ptr, ptr %5, align 8
  %21 = call noundef ptr @_ZN5clang17ObjCTypeParamList3endEv(ptr noundef nonnull align 8 dereferenceable(16) %20)
  store ptr %21, ptr %7, align 8
  br label %22

22:                                               ; preds = %31, %15
  %23 = load ptr, ptr %6, align 8
  %24 = load ptr, ptr %7, align 8
  %25 = icmp ne ptr %23, %24
  br i1 %25, label %26, label %34

26:                                               ; preds = %22
  %27 = load ptr, ptr %6, align 8
  %28 = load ptr, ptr %27, align 8
  store ptr %28, ptr %8, align 8
  %29 = load ptr, ptr %8, align 8
  %30 = getelementptr inbounds i8, ptr %9, i64 48
  call void @_ZN5clang4Decl14setDeclContextEPNS_11DeclContextE(ptr noundef nonnull align 8 dereferenceable(33) %29, ptr noundef %30)
  br label %31

31:                                               ; preds = %26
  %32 = load ptr, ptr %6, align 8
  %33 = getelementptr inbounds ptr, ptr %32, i32 1
  store ptr %33, ptr %6, align 8
  br label %22

34:                                               ; preds = %22, %14
  ret void
}

; Function Attrs: mustprogress nounwind uwtable
define linkonce_odr hidden void @_ZN5clang16ObjCProtocolListC2Ev(ptr noundef nonnull align 8 dereferenceable(24) %0) unnamed_addr #0 comdat align 2 {
  %2 = alloca ptr, align 8
  store ptr %0, ptr %2, align 8
  %3 = load ptr, ptr %2, align 8
  call void @_ZN5clang8ObjCListINS_16ObjCProtocolDeclEEC2Ev(ptr noundef nonnull align 8 dereferenceable(12) %3) #13
  %4 = getelementptr inbounds nuw %"class.clang::ObjCProtocolList", ptr %3, i32 0, i32 1
  store ptr null, ptr %4, align 8
  ret void
}

; Function Attrs: mustprogress nounwind uwtable
define dso_local void @_ZN5clang17ObjCContainerDeclC2ENS_4Decl4KindEPNS_11DeclContextEPKNS_14IdentifierInfoENS_14SourceLocationES8_(ptr noundef nonnull align 8 dereferenceable(88) %0, i32 noundef %1, ptr noundef %2, ptr noundef %3, i32 %4, i32 %5) unnamed_addr #0 align 2 {
  %7 = alloca %"class.clang::SourceLocation", align 4
  %8 = alloca %"class.clang::SourceLocation", align 4
  %9 = alloca ptr, align 8
  %10 = alloca i32, align 4
  %11 = alloca ptr, align 8
  %12 = alloca ptr, align 8
  %13 = alloca %"class.clang::SourceLocation", align 4
  %14 = alloca %"class.clang::DeclarationName", align 8
  %15 = alloca %"class.clang::SourceLocation", align 4
  %16 = getelementptr inbounds nuw %"class.clang::SourceLocation", ptr %7, i32 0, i32 0
  store i32 %4, ptr %16, align 4
  %17 = getelementptr inbounds nuw %"class.clang::SourceLocation", ptr %8, i32 0, i32 0
  store i32 %5, ptr %17, align 4
  store ptr %0, ptr %9, align 8
  store i32 %1, ptr %10, align 4
  store ptr %2, ptr %11, align 8
  store ptr %3, ptr %12, align 8
  %18 = load ptr, ptr %9, align 8
  %19 = load i32, ptr %10, align 4
  %20 = load ptr, ptr %11, align 8
  call void @llvm.memcpy.p0.p0.i64(ptr align 4 %13, ptr align 4 %7, i64 4, i1 false)
  %21 = load ptr, ptr %12, align 8
  call void @_ZN5clang15DeclarationNameC2EPKNS_14IdentifierInfoE(ptr noundef nonnull align 8 dereferenceable(8) %14, ptr noundef %21)
  %22 = getelementptr inbounds nuw %"class.clang::SourceLocation", ptr %13, i32 0, i32 0
  %23 = load i32, ptr %22, align 4
  %24 = getelementptr inbounds nuw %"class.clang::DeclarationName", ptr %14, i32 0, i32 0
  %25 = load i64, ptr %24, align 8
  call void @_ZN5clang9NamedDeclC2ENS_4Decl4KindEPNS_11DeclContextENS_14SourceLocationENS_15DeclarationNameE(ptr noundef nonnull align 8 dereferenceable(48) %18, i32 noundef %19, ptr noundef %20, i32 %23, i64 %25)
  %26 = getelementptr inbounds i8, ptr %18, i64 48
  %27 = load i32, ptr %10, align 4
  call void @_ZN5clang11DeclContextC2ENS_4Decl4KindE(ptr noundef nonnull align 8 dereferenceable(32) %26, i32 noundef %27)
  store ptr getelementptr inbounds inrange(-16, 112) ({ [16 x ptr] }, ptr @_ZTVN5clang17ObjCContainerDeclE, i32 0, i32 0, i32 2), ptr %18, align 8
  %28 = getelementptr inbounds nuw %"class.clang::ObjCContainerDecl", ptr %18, i32 0, i32 2
  call void @_ZN5clang11SourceRangeC2Ev(ptr noundef nonnull align 4 dereferenceable(8) %28) #13
  call void @llvm.memcpy.p0.p0.i64(ptr align 4 %15, ptr align 4 %8, i64 4, i1 false)
  %29 = getelementptr inbounds nuw %"class.clang::SourceLocation", ptr %15, i32 0, i32 0
  %30 = load i32, ptr %29, align 4
  call void @_ZN5clang17ObjCContainerDecl13setAtStartLocENS_14SourceLocationE(ptr noundef nonnull align 8 dereferenceable(88) %18, i32 %30)
  ret void
}

; Function Attrs: mustprogress nounwind uwtable
define dso_local void @_ZN5clang16ObjCCategoryDeclC2EPNS_11DeclContextENS_14SourceLocationES3_S3_PKNS_14IdentifierInfoEPNS_17ObjCInterfaceDeclEPNS_17ObjCTypeParamListES3_S3_(ptr noundef nonnull align 8 dereferenceable(148) %0, ptr noundef %1, i32 %2, i32 %3, i32 %4, ptr noundef %5, ptr noundef %6, ptr noundef %7, i32 %8, i32 %9) unnamed_addr #0 align 2 {
  %11 = alloca %"class.clang::SourceLocation", align 4
  %12 = alloca %"class.clang::SourceLocation", align 4
  %13 = alloca %"class.clang::SourceLocation", align 4
  %14 = alloca %"class.clang::SourceLocation", align 4
  %15 = alloca %"class.clang::SourceLocation", align 4
  %16 = alloca ptr, align 8
  %17 = alloca ptr, align 8
  %18 = alloca ptr, align 8
  %19 = alloca ptr, align 8
  %20 = alloca ptr, align 8
  %21 = alloca %"class.clang::SourceLocation", align 4
  %22 = alloca %"class.clang::SourceLocation", align 4
  %23 = getelementptr inbounds nuw %"class.clang::SourceLocation", ptr %11, i32 0, i32 0
  store i32 %2, ptr %23, align 4
  %24 = getelementptr inbounds nuw %"class.clang::SourceLocation", ptr %12, i32 0, i32 0
  store i32 %3, ptr %24, align 4
  %25 = getelementptr inbounds nuw %"class.clang::SourceLocation", ptr %13, i32 0, i32 0
  store i32 %4, ptr %25, align 4
  %26 = getelementptr inbounds nuw %"class.clang::SourceLocation", ptr %14, i32 0, i32 0
  store i32 %8, ptr %26, align 4
  %27 = getelementptr inbounds nuw %"class.clang::SourceLocation", ptr %15, i32 0, i32 0
  store i32 %9, ptr %27, align 4
  store ptr %0, ptr %16, align 8
  store ptr %1, ptr %17, align 8
  store ptr %5, ptr %18, align 8
  store ptr %6, ptr %19, align 8
  store ptr %7, ptr %20, align 8
  %28 = load ptr, ptr %16, align 8
  %29 = load ptr, ptr %17, align 8
  %30 = load ptr, ptr %18, align 8
  call void @llvm.memcpy.p0.p0.i64(ptr align 4 %21, ptr align 4 %12, i64 4, i1 false)
  call void @llvm.memcpy.p0.p0.i64(ptr align 4 %22, ptr align 4 %11, i64 4, i1 false)
  %31 = getelementptr inbounds nuw %"class.clang::SourceLocation", ptr %21, i32 0, i32 0
  %32 = load i32, ptr %31, align 4
  %33 = getelementptr inbounds nuw %"class.clang::SourceLocation", ptr %22, i32 0, i32 0
  %34 = load i32, ptr %33, align 4
  call void @_ZN5clang17ObjCContainerDeclC2ENS_4Decl4KindEPNS_11DeclContextEPKNS_14IdentifierInfoENS_14SourceLocationES8_(ptr noundef nonnull align 8 dereferenceable(88) %28, i32 noundef 20, ptr noundef %29, ptr noundef %30, i32 %32, i32 %34)
  store ptr getelementptr inbounds inrange(-16, 112) ({ [16 x ptr] }, ptr @_ZTVN5clang16ObjCCategoryDeclE, i32 0, i32 0, i32 2), ptr %28, align 8
  %35 = getelementptr inbounds nuw %"class.clang::ObjCCategoryDecl", ptr %28, i32 0, i32 1
  %36 = load ptr, ptr %19, align 8
  store ptr %36, ptr %35, align 8
  %37 = getelementptr inbounds nuw %"class.clang::ObjCCategoryDecl", ptr %28, i32 0, i32 2
  store ptr null, ptr %37, align 8
  %38 = getelementptr inbounds nuw %"class.clang::ObjCCategoryDecl", ptr %28, i32 0, i32 3
  call void @_ZN5clang16ObjCProtocolListC2Ev(ptr noundef nonnull align 8 dereferenceable(24) %38) #13
  %39 = getelementptr inbounds nuw %"class.clang::ObjCCategoryDecl", ptr %28, i32 0, i32 4
  store ptr null, ptr %39, align 8
  %40 = getelementptr inbounds nuw %"class.clang::ObjCCategoryDecl", ptr %28, i32 0, i32 5
  call void @llvm.memcpy.p0.p0.i64(ptr align 8 %40, ptr align 4 %13, i64 4, i1 false)
  %41 = getelementptr inbounds nuw %"class.clang::ObjCCategoryDecl", ptr %28, i32 0, i32 6
  call void @llvm.memcpy.p0.p0.i64(ptr align 4 %41, ptr align 4 %14, i64 4, i1 false)
  %42 = getelementptr inbounds nuw %"class.clang::ObjCCategoryDecl", ptr %28, i32 0, i32 7
  call void @llvm.memcpy.p0.p0.i64(ptr align 8 %42, ptr align 4 %15, i64 4, i1 false)
  %43 = load ptr, ptr %20, align 8
  call void @_ZN5clang16ObjCCategoryDecl16setTypeParamListEPNS_17ObjCTypeParamListE(ptr noundef nonnull align 8 dereferenceable(148) %28, ptr noundef %43)
  ret void
}