; Function Attrs: mustprogress nounwind uwtable
define dso_local void @_ZN5clang16ObjCCategoryDeclC2EPNS_11DeclContextENS_14SourceLocationES3_S3_PKNS_14IdentifierInfoEPNS_17ObjCInterfaceDeclEPNS_17ObjCTypeParamListES3_S3_(ptr noundef nonnull align 8 dereferenceable(148) %0, ptr noundef %1, i32 %2, i32 %3, i32 %4, ptr noundef %5, ptr noundef %6, ptr noundef %7, i32 %8, i32 %9) unnamed_addr #0 align 2 {
  %11 = ptrtoint ptr %5 to i64
  tail call void @_ZN5clang4DeclC2ENS0_4KindEPNS_11DeclContextENS_14SourceLocationE(ptr noundef nonnull align 8 dereferenceable(33) %0, i32 noundef 20, ptr noundef %1, i32 %3)
  store ptr getelementptr inbounds inrange(-16, 104) (i8, ptr @_ZTVN5clang9NamedDeclE, i64 16), ptr %0, align 8
  %12 = getelementptr inbounds nuw i8, ptr %0, i64 40
  store i64 %11, ptr %12, align 8
  %13 = getelementptr inbounds i8, ptr %0, i64 48
  tail call void @_ZN5clang11DeclContextC2ENS_4Decl4KindE(ptr noundef nonnull align 8 dereferenceable(32) %13, i32 noundef 20) #23
  %14 = getelementptr inbounds nuw i8, ptr %0, i64 80
  store i32 0, ptr %14, align 8
  %15 = getelementptr inbounds i8, ptr %0, i64 84
  store i32 0, ptr %15, align 4
  %16 = getelementptr inbounds i8, ptr %0, i64 60
  store i32 %2, ptr %16, align 4
  store ptr getelementptr inbounds inrange(-16, 112) (i8, ptr @_ZTVN5clang16ObjCCategoryDeclE, i64 16), ptr %0, align 8
  %17 = getelementptr inbounds nuw i8, ptr %0, i64 88
  store ptr %6, ptr %17, align 8
  %18 = getelementptr inbounds nuw i8, ptr %0, i64 96
  %19 = getelementptr inbounds i8, ptr %0, i64 120
  %20 = getelementptr inbounds nuw i8, ptr %0, i64 136
  %21 = getelementptr inbounds i8, ptr %0, i64 104
  tail call void @llvm.memset.p0.i64(ptr noundef nonnull align 8 dereferenceable(12) %21, i8 0, i64 12, i1 false)
  tail call void @llvm.memset.p0.i64(ptr noundef nonnull align 8 dereferenceable(16) %19, i8 0, i64 16, i1 false)
  store i32 %4, ptr %20, align 8
  %22 = getelementptr inbounds nuw i8, ptr %0, i64 140
  store i32 %8, ptr %22, align 4
  %23 = getelementptr inbounds nuw i8, ptr %0, i64 144
  store i32 %9, ptr %23, align 8
  store ptr %7, ptr %18, align 8
  %.not.i = icmp eq ptr %7, null
  br i1 %.not.i, label %_ZN5clang16ObjCCategoryDecl16setTypeParamListEPNS_17ObjCTypeParamListE.exit, label %24

24:                                               ; preds = %10
  %25 = getelementptr inbounds nuw i8, ptr %7, i64 8
  %26 = load i32, ptr %25, align 8
  %27 = zext i32 %26 to i64
  %.idx.i = shl nuw nsw i64 %27, 3
  %28 = getelementptr inbounds i8, ptr %7, i64 %.idx.i
  %.ptr14.i = getelementptr inbounds i8, ptr %28, i64 16
  %.not1112.i = icmp eq i32 %26, 0
  br i1 %.not1112.i, label %_ZN5clang16ObjCCategoryDecl16setTypeParamListEPNS_17ObjCTypeParamListE.exit, label %.lr.ph.i

.lr.ph.i:                                         ; preds = %24
  %.ptr.i = getelementptr inbounds i8, ptr %7, i64 16
  br label %29

29:                                               ; preds = %29, %.lr.ph.i
  %.013.i = phi ptr [ %.ptr.i, %.lr.ph.i ], [ %31, %29 ]
  %30 = load ptr, ptr %.013.i, align 8
  tail call void @_ZN5clang4Decl14setDeclContextEPNS_11DeclContextE(ptr noundef nonnull align 8 dereferenceable(33) %30, ptr noundef nonnull %13) #23
  %31 = getelementptr inbounds i8, ptr %.013.i, i64 8
  %.not11.i = icmp eq ptr %31, %.ptr14.i
  br i1 %.not11.i, label %_ZN5clang16ObjCCategoryDecl16setTypeParamListEPNS_17ObjCTypeParamListE.exit, label %29

_ZN5clang16ObjCCategoryDecl16setTypeParamListEPNS_17ObjCTypeParamListE.exit: ; preds = %29, %10, %24
  ret void
}